target datalayout = "e-m:e-p270:32:32-p271:32:32-p272:64:64-i64:64-i128:128-f80:128-n8:16:32:64-S128"
target triple = "x86_64-pc-linux-gnu"

@tcg_env = external global ptr, align 8

; Function Attrs: nounwind sspstrong uwtable
define internal void @expand_3_vec(i32 noundef %0, i32 noundef %1, i32 noundef %2, i32 noundef %3, i32 noundef %4, i32 noundef %5, i32 noundef %6, i1 noundef zeroext %7, ptr noundef %8) #0 {
  %10 = alloca i32, align 4
  %11 = alloca i32, align 4
  %12 = alloca i32, align 4
  %13 = alloca i32, align 4
  %14 = alloca i32, align 4
  %15 = alloca i32, align 4
  %16 = alloca i32, align 4
  %17 = alloca i8, align 1
  %18 = alloca ptr, align 8
  %19 = alloca i32, align 4
  %20 = alloca ptr, align 8
  %21 = alloca ptr, align 8
  %22 = alloca ptr, align 8
  store i32 %0, ptr %10, align 4
  store i32 %1, ptr %11, align 4
  store i32 %2, ptr %12, align 4
  store i32 %3, ptr %13, align 4
  store i32 %4, ptr %14, align 4
  store i32 %5, ptr %15, align 4
  store i32 %6, ptr %16, align 4
  %23 = zext i1 %7 to i8
  store i8 %23, ptr %17, align 1
  store ptr %8, ptr %18, align 8
  call void @llvm.lifetime.start.p0(i64 4, ptr %19) #10
  store i32 0, ptr %19, align 4
  br label %24

24:                                               ; preds = %69, %9
  %25 = load i32, ptr %19, align 4
  %26 = load i32, ptr %14, align 4
  %27 = icmp ult i32 %25, %26
  br i1 %27, label %29, label %28

28:                                               ; preds = %24
  call void @llvm.lifetime.end.p0(i64 4, ptr %19) #10
  br label %73

29:                                               ; preds = %24
  call void @llvm.lifetime.start.p0(i64 8, ptr %20) #10
  %30 = load i32, ptr %16, align 4
  %31 = call ptr @tcg_temp_new_vec(i32 noundef %30)
  store ptr %31, ptr %20, align 8
  call void @llvm.lifetime.start.p0(i64 8, ptr %21) #10
  %32 = load i32, ptr %16, align 4
  %33 = call ptr @tcg_temp_new_vec(i32 noundef %32)
  store ptr %33, ptr %21, align 8
  call void @llvm.lifetime.start.p0(i64 8, ptr %22) #10
  %34 = load i32, ptr %16, align 4
  %35 = call ptr @tcg_temp_new_vec(i32 noundef %34)
  store ptr %35, ptr %22, align 8
  %36 = load ptr, ptr %20, align 8
  %37 = load ptr, ptr @tcg_env, align 8
  %38 = load i32, ptr %12, align 4
  %39 = load i32, ptr %19, align 4
  %40 = add i32 %38, %39
  %41 = zext i32 %40 to i64
  call void @tcg_gen_ld_vec(ptr noundef %36, ptr noundef %37, i64 noundef %41)
  %42 = load ptr, ptr %21, align 8
  %43 = load ptr, ptr @tcg_env, align 8
  %44 = load i32, ptr %13, align 4
  %45 = load i32, ptr %19, align 4
  %46 = add i32 %44, %45
  %47 = zext i32 %46 to i64
  call void @tcg_gen_ld_vec(ptr noundef %42, ptr noundef %43, i64 noundef %47)
  %48 = load i8, ptr %17, align 1, !range !5, !noundef !6
  %49 = trunc i8 %48 to i1
  br i1 %49, label %50, label %57

50:                                               ; preds = %29
  %51 = load ptr, ptr %22, align 8
  %52 = load ptr, ptr @tcg_env, align 8
  %53 = load i32, ptr %11, align 4
  %54 = load i32, ptr %19, align 4
  %55 = add i32 %53, %54
  %56 = zext i32 %55 to i64
  call void @tcg_gen_ld_vec(ptr noundef %51, ptr noundef %52, i64 noundef %56)
  br label %57

57:                                               ; preds = %50, %29
  %58 = load ptr, ptr %18, align 8
  %59 = load i32, ptr %10, align 4
  %60 = load ptr, ptr %22, align 8
  %61 = load ptr, ptr %20, align 8
  %62 = load ptr, ptr %21, align 8
  call void %58(i32 noundef %59, ptr noundef %60, ptr noundef %61, ptr noundef %62)
  %63 = load ptr, ptr %22, align 8
  %64 = load ptr, ptr @tcg_env, align 8
  %65 = load i32, ptr %11, align 4
  %66 = load i32, ptr %19, align 4
  %67 = add i32 %65, %66
  %68 = zext i32 %67 to i64
  call void @tcg_gen_st_vec(ptr noundef %63, ptr noundef %64, i64 noundef %68)
  call void @llvm.lifetime.end.p0(i64 8, ptr %22) #10
  call void @llvm.lifetime.end.p0(i64 8, ptr %21) #10
  call void @llvm.lifetime.end.p0(i64 8, ptr %20) #10
  br label %69

69:                                               ; preds = %57
  %70 = load i32, ptr %15, align 4
  %71 = load i32, ptr %19, align 4
  %72 = add i32 %71, %70
  store i32 %72, ptr %19, align 4
  br label %24, !llvm.loop !17

73:                                               ; preds = %28
  ret void
}