; Function Attrs: nounwind sspstrong uwtable
define internal fastcc void @expand_3_vec(i32 noundef range(i32 0, 256) %0, i32 noundef %1, i32 noundef %2, i32 noundef %3, i32 noundef %4, i32 noundef range(i32 8, 33) %5, i32 noundef range(i32 3, 6) %6, i1 noundef zeroext %7, ptr noundef readonly captures(none) %8) unnamed_addr #2 {
  %.not = icmp eq i32 %4, 0
  br i1 %.not, label %._crit_edge, label %.lr.ph

.lr.ph:                                           ; preds = %9
  br i1 %7, label %.lr.ph.split.us, label %.lr.ph.split

.lr.ph.split.us:                                  ; preds = %.lr.ph, %.lr.ph.split.us
  %.024.us = phi i32 [ %23, %.lr.ph.split.us ], [ 0, %.lr.ph ]
  %10 = tail call ptr @tcg_temp_new_vec(i32 noundef %6) #10
  %11 = tail call ptr @tcg_temp_new_vec(i32 noundef %6) #10
  %12 = tail call ptr @tcg_temp_new_vec(i32 noundef %6) #10
  %13 = load ptr, ptr @tcg_env, align 8
  %14 = add i32 %.024.us, %2
  %15 = zext i32 %14 to i64
  tail call void @tcg_gen_ld_vec(ptr noundef %10, ptr noundef %13, i64 noundef %15) #10
  %16 = load ptr, ptr @tcg_env, align 8
  %17 = add i32 %.024.us, %3
  %18 = zext i32 %17 to i64
  tail call void @tcg_gen_ld_vec(ptr noundef %11, ptr noundef %16, i64 noundef %18) #10
  %19 = load ptr, ptr @tcg_env, align 8
  %20 = add i32 %.024.us, %1
  %21 = zext i32 %20 to i64
  tail call void @tcg_gen_ld_vec(ptr noundef %12, ptr noundef %19, i64 noundef %21) #10
  tail call void %8(i32 noundef %0, ptr noundef %12, ptr noundef %10, ptr noundef %11) #10
  %22 = load ptr, ptr @tcg_env, align 8
  tail call void @tcg_gen_st_vec(ptr noundef %12, ptr noundef %22, i64 noundef %21) #10
  %23 = add i32 %.024.us, %5
  %24 = icmp ult i32 %23, %4
  br i1 %24, label %.lr.ph.split.us, label %._crit_edge, !llvm.loop !18

._crit_edge:                                      ; preds = %.lr.ph.split, %.lr.ph.split.us, %9
  ret void

.lr.ph.split:                                     ; preds = %.lr.ph, %.lr.ph.split
  %.024 = phi i32 [ %37, %.lr.ph.split ], [ 0, %.lr.ph ]
  %25 = tail call ptr @tcg_temp_new_vec(i32 noundef %6) #10
  %26 = tail call ptr @tcg_temp_new_vec(i32 noundef %6) #10
  %27 = tail call ptr @tcg_temp_new_vec(i32 noundef %6) #10
  %28 = load ptr, ptr @tcg_env, align 8
  %29 = add i32 %.024, %2
  %30 = zext i32 %29 to i64
  tail call void @tcg_gen_ld_vec(ptr noundef %25, ptr noundef %28, i64 noundef %30) #10
  %31 = load ptr, ptr @tcg_env, align 8
  %32 = add i32 %.024, %3
  %33 = zext i32 %32 to i64
  tail call void @tcg_gen_ld_vec(ptr noundef %26, ptr noundef %31, i64 noundef %33) #10
  tail call void %8(i32 noundef %0, ptr noundef %27, ptr noundef %25, ptr noundef %26) #10
  %34 = load ptr, ptr @tcg_env, align 8
  %35 = add i32 %.024, %1
  %36 = zext i32 %35 to i64
  tail call void @tcg_gen_st_vec(ptr noundef %27, ptr noundef %34, i64 noundef %36) #10
  %37 = add i32 %.024, %5
  %38 = icmp ult i32 %37, %4
  br i1 %38, label %.lr.ph.split, label %._crit_edge, !llvm.loop !18
}